; Function Attrs: nounwind uwtable
define hidden i32 @SDL_GetAudioStreamDevice_REAL(ptr noundef readonly captures(address_is_null) %0) local_unnamed_addr #0 {
  %.not = icmp eq ptr %0, null
  br i1 %.not, label %2, label %4

2:                                                ; preds = %1
  %3 = tail call zeroext i1 (ptr, ...) @SDL_SetError_REAL(ptr noundef nonnull @.str, ptr noundef nonnull @.str.24) #14
  br label %14

4:                                                ; preds = %1
  %5 = load ptr, ptr %0, align 8
  tail call void @SDL_LockMutex_REAL(ptr noundef %5) #14
  %6 = getelementptr inbounds nuw i8, ptr %0, i64 192
  %7 = load ptr, ptr %6, align 8
  %.not9 = icmp eq ptr %7, null
  br i1 %.not9, label %10, label %8

8:                                                ; preds = %4
  %9 = load i32, ptr %7, align 8
  br label %12

10:                                               ; preds = %4
  %11 = tail call zeroext i1 (ptr, ...) @SDL_SetError_REAL(ptr noundef nonnull @.str.25) #14
  br label %12

12:                                               ; preds = %10, %8
  %.0 = phi i32 [ %9, %8 ], [ 0, %10 ]
  %13 = load ptr, ptr %0, align 8
  tail call void @SDL_UnlockMutex_REAL(ptr noundef %13) #14
  br label %14

14:                                               ; preds = %12, %2
  %.06 = phi i32 [ %.0, %12 ], [ 0, %2 ]
  ret i32 %.06
}